; Function Attrs: mustprogress uwtable
define void @_ZN6icu_7712StringSearchC2ERKNS_13UnicodeStringERNS_17CharacterIteratorEPNS_17RuleBasedCollatorEPNS_13BreakIteratorER10UErrorCode(ptr noundef nonnull align 8 dereferenceable(160) %0, ptr noundef nonnull align 8 dereferenceable(64) %1, ptr noundef nonnull align 8 dereferenceable(24) %2, ptr noundef %3, ptr noundef %4, ptr noundef nonnull align 4 dereferenceable(4) %5) unnamed_addr #1 align 2 personality ptr @__gxx_personality_v0 {
  tail call void @_ZN6icu_7714SearchIteratorC2ERNS_17CharacterIteratorEPNS_13BreakIteratorE(ptr noundef nonnull align 8 dereferenceable(88) %0, ptr noundef nonnull align 8 dereferenceable(24) %2, ptr noundef %4)
  store ptr getelementptr inbounds nuw inrange(-16, 112) (i8, ptr @_ZTVN6icu_7712StringSearchE, i64 16), ptr %0, align 8, !tbaa !3
  %7 = getelementptr inbounds nuw i8, ptr %0, i64 88
  invoke void @_ZN6icu_7713UnicodeStringC1ERKS0_(ptr noundef nonnull align 8 dereferenceable(64) %7, ptr noundef nonnull align 8 dereferenceable(64) %1)
          to label %8 unwind label %13

8:                                                ; preds = %6
  %9 = load i32, ptr %5, align 4, !tbaa !6
  %10 = icmp slt i32 %9, 1
  br i1 %10, label %17, label %11

11:                                               ; preds = %8
  %12 = getelementptr inbounds nuw i8, ptr %0, i64 152
  store ptr null, ptr %12, align 8, !tbaa !9
  br label %67

13:                                               ; preds = %6
  %14 = landingpad { ptr, i32 }
          cleanup
  br label %68

15:                                               ; preds = %57, %49
  %16 = landingpad { ptr, i32 }
          cleanup
  tail call void @_ZN6icu_7713UnicodeStringD1Ev(ptr noundef nonnull align 8 dereferenceable(64) %7) #9
  br label %68

17:                                               ; preds = %8
  %18 = icmp eq ptr %3, null
  br i1 %18, label %19, label %21

19:                                               ; preds = %17
  store i32 1, ptr %5, align 4, !tbaa !6
  %20 = getelementptr inbounds nuw i8, ptr %0, i64 152
  store ptr null, ptr %20, align 8, !tbaa !9
  br label %67

21:                                               ; preds = %17
  %22 = getelementptr inbounds nuw i8, ptr %0, i64 96
  %23 = load i16, ptr %22, align 8, !tbaa !19
  %24 = and i16 %23, 17
  %.not.i = icmp eq i16 %24, 0
  br i1 %.not.i, label %25, label %32

25:                                               ; preds = %21
  %26 = and i16 %23, 2
  %.not2.i = icmp eq i16 %26, 0
  br i1 %.not2.i, label %29, label %27

27:                                               ; preds = %25
  %28 = getelementptr inbounds nuw i8, ptr %0, i64 98
  br label %32

29:                                               ; preds = %25
  %30 = getelementptr inbounds nuw i8, ptr %0, i64 112
  %31 = load ptr, ptr %30, align 8, !tbaa !19
  br label %32

32:                                               ; preds = %29, %27, %21
  %.0.i = phi ptr [ %28, %27 ], [ %31, %29 ], [ null, %21 ]
  %33 = icmp slt i16 %23, 0
  %34 = ashr i16 %23, 5
  %35 = sext i16 %34 to i32
  %36 = getelementptr inbounds nuw i8, ptr %0, i64 100
  %37 = load i32, ptr %36, align 4
  %38 = select i1 %33, i32 %37, i32 %35
  %39 = getelementptr inbounds nuw i8, ptr %0, i64 32
  %40 = load i16, ptr %39, align 8, !tbaa !19
  %41 = and i16 %40, 17
  %.not.i16 = icmp eq i16 %41, 0
  br i1 %.not.i16, label %42, label %49

42:                                               ; preds = %32
  %43 = and i16 %40, 2
  %.not2.i18 = icmp eq i16 %43, 0
  br i1 %.not2.i18, label %46, label %44

44:                                               ; preds = %42
  %45 = getelementptr inbounds nuw i8, ptr %0, i64 34
  br label %49

46:                                               ; preds = %42
  %47 = getelementptr inbounds nuw i8, ptr %0, i64 48
  %48 = load ptr, ptr %47, align 8, !tbaa !19
  br label %49

49:                                               ; preds = %46, %44, %32
  %.0.i17 = phi ptr [ %45, %44 ], [ %48, %46 ], [ null, %32 ]
  %50 = icmp slt i16 %40, 0
  %51 = ashr i16 %40, 5
  %52 = sext i16 %51 to i32
  %53 = getelementptr inbounds nuw i8, ptr %0, i64 36
  %54 = load i32, ptr %53, align 4
  %55 = select i1 %50, i32 %54, i32 %52
  %56 = invoke ptr @usearch_openFromCollator_77(ptr noundef %.0.i, i32 noundef %38, ptr noundef %.0.i17, i32 noundef %55, ptr noundef nonnull %3, ptr noundef %4, ptr noundef nonnull %5)
          to label %57 unwind label %15

57:                                               ; preds = %49
  %58 = getelementptr inbounds nuw i8, ptr %0, i64 152
  store ptr %56, ptr %58, align 8, !tbaa !9
  %59 = getelementptr inbounds nuw i8, ptr %0, i64 8
  %60 = load ptr, ptr %59, align 8, !tbaa !24
  invoke void @uprv_free_77(ptr noundef %60)
          to label %61 unwind label %15

61:                                               ; preds = %57
  store ptr null, ptr %59, align 8, !tbaa !24
  %62 = load i32, ptr %5, align 4, !tbaa !6
  %63 = icmp sgt i32 %62, 0
  br i1 %63, label %67, label %64

64:                                               ; preds = %61
  %65 = load ptr, ptr %58, align 8, !tbaa !9
  %66 = load ptr, ptr %65, align 8, !tbaa !25
  store ptr %66, ptr %59, align 8, !tbaa !24
  br label %67

67:                                               ; preds = %64, %61, %19, %11
  ret void

68:                                               ; preds = %15, %13
  %.pn = phi { ptr, i32 } [ %16, %15 ], [ %14, %13 ]
  tail call void @_ZN6icu_7714SearchIteratorD2Ev(ptr noundef nonnull align 8 dereferenceable(88) %0) #9
  resume { ptr, i32 } %.pn
}